target datalayout = "e-m:e-p270:32:32-p271:32:32-p272:64:64-i64:64-i128:128-f80:128-n8:16:32:64-S128"
target triple = "x86_64-pc-linux-gnu"

%class.LogTagSet = type { ptr, i64, [5 x i32], [4 x i8], %class.LogOutputList, %class.LogDecorators, ptr }
%class.LogOutputList = type <{ [6 x ptr], i32, [4 x i8] }>
%class.LogDecorators = type { i32 }
%"class.StringDedup::StorageUse" = type { ptr, i64 }
%"class.StringDedup::Requests" = type <{ ptr, ptr, i64, i8, [7 x i8] }>

@.str.7 = private unnamed_addr constant [34 x i8] c"request failed to allocate buffer\00", align 1
@.str.8 = private unnamed_addr constant [46 x i8] c"request failed to allocate oopstorage entries\00", align 1
@_ZN16LogTagSetMappingILN6LogTag4typeE148ELS1_0ELS1_0ELS1_0ELS1_0ELS1_0EE7_tagsetE = linkonce_odr hidden global %class.LogTagSet zeroinitializer, comdat, align 8

; Function Attrs: mustprogress nounwind uwtable
define linkonce_odr hidden noundef zeroext i1 @_ZNK13LogOutputList8is_levelEN8LogLevel4typeE(ptr noundef nonnull align 8 dereferenceable(52) %0, i32 noundef %1) #1 comdat align 2 {
  %3 = alloca ptr, align 8
  %4 = alloca i32, align 4
  store ptr %0, ptr %3, align 8
  store i32 %1, ptr %4, align 4
  %5 = load ptr, ptr %3, align 8
  %6 = getelementptr inbounds %class.LogOutputList, ptr %5, i32 0, i32 0
  %7 = load i32, ptr %4, align 4
  %8 = zext i32 %7 to i64
  %9 = getelementptr inbounds [6 x ptr], ptr %6, i64 0, i64 %8
  %10 = load volatile ptr, ptr %9, align 8
  %11 = icmp ne ptr %10, null
  ret i1 %11
}

; Function Attrs: mustprogress nounwind uwtable
define linkonce_odr hidden noundef zeroext i1 @_ZNK9LogTagSet8is_levelEN8LogLevel4typeE(ptr noundef nonnull align 8 dereferenceable(112) %0, i32 noundef %1) #1 comdat align 2 {
  %3 = alloca ptr, align 8
  %4 = alloca i32, align 4
  store ptr %0, ptr %3, align 8
  store i32 %1, ptr %4, align 4
  %5 = load ptr, ptr %3, align 8
  %6 = getelementptr inbounds %class.LogTagSet, ptr %5, i32 0, i32 4
  %7 = load i32, ptr %4, align 4
  %8 = call noundef zeroext i1 @_ZNK13LogOutputList8is_levelEN8LogLevel4typeE(ptr noundef nonnull align 8 dereferenceable(52) %6, i32 noundef %7)
  ret i1 %8
}

; Function Attrs: mustprogress nounwind uwtable
define linkonce_odr hidden noundef nonnull align 8 dereferenceable(112) ptr @_ZN16LogTagSetMappingILN6LogTag4typeE148ELS1_0ELS1_0ELS1_0ELS1_0ELS1_0EE6tagsetEv() #1 comdat align 2 {
  ret ptr @_ZN16LogTagSetMappingILN6LogTag4typeE148ELS1_0ELS1_0ELS1_0ELS1_0ELS1_0EE7_tagsetE
}

; Function Attrs: mustprogress nounwind uwtable
define hidden void @_ZN11StringDedup8Requests5flushEv(ptr noundef nonnull align 8 dereferenceable(25) %0) #1 align 2 {
  %2 = alloca ptr, align 8
  store ptr %0, ptr %2, align 8
  %3 = load ptr, ptr %2, align 8
  %4 = getelementptr inbounds %"class.StringDedup::Requests", ptr %3, i32 0, i32 1
  %5 = load ptr, ptr %4, align 8
  %6 = icmp ne ptr %5, null
  br i1 %6, label %7, label %23

7:                                                ; preds = %1
  %8 = getelementptr inbounds %"class.StringDedup::Requests", ptr %3, i32 0, i32 2
  %9 = load i64, ptr %8, align 8
  %10 = icmp ugt i64 %9, 0
  br i1 %10, label %11, label %19

11:                                               ; preds = %7
  %12 = getelementptr inbounds %"class.StringDedup::Requests", ptr %3, i32 0, i32 0
  %13 = load ptr, ptr %12, align 8
  %14 = call noundef ptr @_ZNK11StringDedup10StorageUse7storageEv(ptr noundef nonnull align 8 dereferenceable(16) %13)
  %15 = getelementptr inbounds %"class.StringDedup::Requests", ptr %3, i32 0, i32 1
  %16 = load ptr, ptr %15, align 8
  %17 = getelementptr inbounds %"class.StringDedup::Requests", ptr %3, i32 0, i32 2
  %18 = load i64, ptr %17, align 8
  call void @_ZN10OopStorage7releaseEPKPKP7oopDescm(ptr noundef nonnull align 8 dereferenceable(126) %14, ptr noundef %16, i64 noundef %18)
  br label %19

19:                                               ; preds = %11, %7
  %20 = getelementptr inbounds %"class.StringDedup::Requests", ptr %3, i32 0, i32 1
  %21 = load ptr, ptr %20, align 8
  call void @_Z8FreeHeapPv(ptr noundef %21)
  %22 = getelementptr inbounds %"class.StringDedup::Requests", ptr %3, i32 0, i32 1
  store ptr null, ptr %22, align 8
  br label %23

23:                                               ; preds = %19, %1
  %24 = getelementptr inbounds %"class.StringDedup::Requests", ptr %3, i32 0, i32 0
  %25 = load ptr, ptr %24, align 8
  %26 = icmp ne ptr %25, null
  br i1 %26, label %27, label %31

27:                                               ; preds = %23
  %28 = getelementptr inbounds %"class.StringDedup::Requests", ptr %3, i32 0, i32 0
  %29 = load ptr, ptr %28, align 8
  call void @_ZN11StringDedup10StorageUse10relinquishEv(ptr noundef nonnull align 8 dereferenceable(16) %29)
  %30 = getelementptr inbounds %"class.StringDedup::Requests", ptr %3, i32 0, i32 0
  store ptr null, ptr %30, align 8
  br label %31

31:                                               ; preds = %27, %23
  %32 = getelementptr inbounds %"class.StringDedup::Requests", ptr %3, i32 0, i32 2
  store i64 0, ptr %32, align 8
  %33 = getelementptr inbounds %"class.StringDedup::Requests", ptr %3, i32 0, i32 3
  store i8 0, ptr %33, align 8
  ret void
}

; Function Attrs: mustprogress nounwind uwtable
define linkonce_odr hidden noundef ptr @_ZNK11StringDedup10StorageUse7storageEv(ptr noundef nonnull align 8 dereferenceable(16) %0) #1 comdat align 2 {
  %2 = alloca ptr, align 8
  store ptr %0, ptr %2, align 8
  %3 = load ptr, ptr %2, align 8
  %4 = getelementptr inbounds %"class.StringDedup::StorageUse", ptr %3, i32 0, i32 0
  %5 = load ptr, ptr %4, align 8
  ret ptr %5
}

; Function Attrs: mustprogress nounwind uwtable
define linkonce_odr hidden noundef zeroext i1 @_ZN7LogImplILN6LogTag4typeE148ELS1_0ELS1_0ELS1_0ELS1_0ELS1_0EE8is_levelEN8LogLevel4typeE(i32 noundef %0) #1 comdat align 2 {
  %2 = alloca i32, align 4
  store i32 %0, ptr %2, align 4
  %3 = call noundef nonnull align 8 dereferenceable(112) ptr @_ZN16LogTagSetMappingILN6LogTag4typeE148ELS1_0ELS1_0ELS1_0ELS1_0ELS1_0EE6tagsetEv()
  %4 = load i32, ptr %2, align 4
  %5 = call noundef zeroext i1 @_ZNK9LogTagSet8is_levelEN8LogLevel4typeE(ptr noundef nonnull align 8 dereferenceable(112) %3, i32 noundef %4)
  ret i1 %5
}

; Function Attrs: mustprogress nounwind uwtable
define hidden noundef zeroext i1 @_ZN11StringDedup8Requests13refill_bufferEv(ptr noundef nonnull align 8 dereferenceable(25) %0) #1 align 2 {
  %2 = alloca i1, align 1
  %3 = alloca ptr, align 8
  %4 = alloca i64, align 8
  store ptr %0, ptr %3, align 8
  %5 = load ptr, ptr %3, align 8
  %6 = getelementptr inbounds %"class.StringDedup::Requests", ptr %5, i32 0, i32 3
  %7 = load i8, ptr %6, align 8
  %8 = trunc i8 %7 to i1
  br i1 %8, label %9, label %10

9:                                                ; preds = %1
  store i1 false, ptr %2, align 1
  br label %47

10:                                               ; preds = %1
  store i64 64, ptr %4, align 8
  %11 = getelementptr inbounds %"class.StringDedup::Requests", ptr %5, i32 0, i32 1
  %12 = load ptr, ptr %11, align 8
  %13 = icmp eq ptr %12, null
  br i1 %13, label %14, label %29

14:                                               ; preds = %10
  %15 = call noundef ptr @_Z12AllocateHeapm8MEMFLAGSN17AllocFailStrategy13AllocFailEnumE(i64 noundef 512, i8 noundef zeroext 25, i32 noundef 1)
  %16 = getelementptr inbounds %"class.StringDedup::Requests", ptr %5, i32 0, i32 1
  store ptr %15, ptr %16, align 8
  %17 = getelementptr inbounds %"class.StringDedup::Requests", ptr %5, i32 0, i32 1
  %18 = load ptr, ptr %17, align 8
  %19 = icmp eq ptr %18, null
  br i1 %19, label %20, label %26

20:                                               ; preds = %14
  %21 = call noundef zeroext i1 @_ZN7LogImplILN6LogTag4typeE148ELS1_0ELS1_0ELS1_0ELS1_0ELS1_0EE8is_levelEN8LogLevel4typeE(i32 noundef 2)
  br i1 %21, label %23, label %22

22:                                               ; preds = %20
  br label %24

23:                                               ; preds = %20
  call void (ptr, ...) @_ZN7LogImplILN6LogTag4typeE148ELS1_0ELS1_0ELS1_0ELS1_0ELS1_0EE5writeILN8LogLevel4typeE2EEEvPKcz(ptr noundef @.str.7)
  br label %24

24:                                               ; preds = %23, %22
  %25 = getelementptr inbounds %"class.StringDedup::Requests", ptr %5, i32 0, i32 3
  store i8 1, ptr %25, align 8
  store i1 false, ptr %2, align 1
  br label %47

26:                                               ; preds = %14
  %27 = call noundef ptr @_ZN11StringDedup9Processor20storage_for_requestsEv()
  %28 = getelementptr inbounds %"class.StringDedup::Requests", ptr %5, i32 0, i32 0
  store ptr %27, ptr %28, align 8
  br label %29

29:                                               ; preds = %26, %10
  %30 = getelementptr inbounds %"class.StringDedup::Requests", ptr %5, i32 0, i32 0
  %31 = load ptr, ptr %30, align 8
  %32 = call noundef ptr @_ZNK11StringDedup10StorageUse7storageEv(ptr noundef nonnull align 8 dereferenceable(16) %31)
  %33 = getelementptr inbounds %"class.StringDedup::Requests", ptr %5, i32 0, i32 1
  %34 = load ptr, ptr %33, align 8
  %35 = call noundef i64 @_ZN10OopStorage8allocateEPPP7oopDescm(ptr noundef nonnull align 8 dereferenceable(126) %32, ptr noundef %34, i64 noundef 64)
  %36 = getelementptr inbounds %"class.StringDedup::Requests", ptr %5, i32 0, i32 2
  store i64 %35, ptr %36, align 8
  %37 = getelementptr inbounds %"class.StringDedup::Requests", ptr %5, i32 0, i32 2
  %38 = load i64, ptr %37, align 8
  %39 = icmp eq i64 %38, 0
  br i1 %39, label %40, label %46

40:                                               ; preds = %29
  %41 = call noundef zeroext i1 @_ZN7LogImplILN6LogTag4typeE148ELS1_0ELS1_0ELS1_0ELS1_0ELS1_0EE8is_levelEN8LogLevel4typeE(i32 noundef 2)
  br i1 %41, label %43, label %42

42:                                               ; preds = %40
  br label %44

43:                                               ; preds = %40
  call void (ptr, ...) @_ZN7LogImplILN6LogTag4typeE148ELS1_0ELS1_0ELS1_0ELS1_0ELS1_0EE5writeILN8LogLevel4typeE2EEEvPKcz(ptr noundef @.str.8)
  br label %44

44:                                               ; preds = %43, %42
  call void @_ZN11StringDedup8Requests5flushEv(ptr noundef nonnull align 8 dereferenceable(25) %5)
  %45 = getelementptr inbounds %"class.StringDedup::Requests", ptr %5, i32 0, i32 3
  store i8 1, ptr %45, align 8
  store i1 false, ptr %2, align 1
  br label %47

46:                                               ; preds = %29
  store i1 true, ptr %2, align 1
  br label %47

47:                                               ; preds = %46, %44, %24, %9
  %48 = load i1, ptr %2, align 1
  ret i1 %48
}