; Function Attrs: mustprogress nounwind uwtable
define hidden noundef zeroext i1 @_ZN11StringDedup8Requests13refill_bufferEv(ptr nocapture noundef nonnull align 8 dereferenceable(25) %0) local_unnamed_addr #1 align 2 {
  %2 = getelementptr inbounds i8, ptr %0, i64 24
  %3 = load i8, ptr %2, align 8
  %4 = trunc i8 %3 to i1
  br i1 %4, label %39, label %5

5:                                                ; preds = %1
  %6 = getelementptr inbounds i8, ptr %0, i64 8
  %7 = load ptr, ptr %6, align 8
  %8 = icmp eq ptr %7, null
  br i1 %8, label %9, label %._crit_edge

._crit_edge:                                      ; preds = %5
  %.pre = load ptr, ptr %0, align 8
  br label %17

9:                                                ; preds = %5
  %10 = tail call noundef ptr @_Z12AllocateHeapm8MEMFLAGSN17AllocFailStrategy13AllocFailEnumE(i64 noundef 512, i8 noundef zeroext 25, i32 noundef 1) #8
  store ptr %10, ptr %6, align 8
  %11 = icmp eq ptr %10, null
  br i1 %11, label %12, label %15

12:                                               ; preds = %9
  %13 = load volatile ptr, ptr getelementptr inbounds (i8, ptr @_ZN16LogTagSetMappingILN6LogTag4typeE148ELS1_0ELS1_0ELS1_0ELS1_0ELS1_0EE7_tagsetE, i64 56), align 8
  %.not2 = icmp eq ptr %13, null
  br i1 %.not2, label %.sink.split, label %14

14:                                               ; preds = %12
  tail call void (ptr, ...) @_ZN7LogImplILN6LogTag4typeE148ELS1_0ELS1_0ELS1_0ELS1_0ELS1_0EE5writeILN8LogLevel4typeE2EEEvPKcz(ptr noundef nonnull @.str.7)
  br label %.sink.split

15:                                               ; preds = %9
  %16 = tail call noundef ptr @_ZN11StringDedup9Processor20storage_for_requestsEv() #8
  store ptr %16, ptr %0, align 8
  %.pre3 = load ptr, ptr %6, align 8
  br label %17

17:                                               ; preds = %._crit_edge, %15
  %18 = phi ptr [ %7, %._crit_edge ], [ %.pre3, %15 ]
  %19 = phi ptr [ %.pre, %._crit_edge ], [ %16, %15 ]
  %20 = load ptr, ptr %19, align 8
  %21 = tail call noundef i64 @_ZN10OopStorage8allocateEPPP7oopDescm(ptr noundef nonnull align 8 dereferenceable(126) %20, ptr noundef %18, i64 noundef 64) #8
  %22 = getelementptr inbounds i8, ptr %0, i64 16
  store i64 %21, ptr %22, align 8
  %23 = icmp eq i64 %21, 0
  br i1 %23, label %24, label %39

24:                                               ; preds = %17
  %25 = load volatile ptr, ptr getelementptr inbounds (i8, ptr @_ZN16LogTagSetMappingILN6LogTag4typeE148ELS1_0ELS1_0ELS1_0ELS1_0ELS1_0EE7_tagsetE, i64 56), align 8
  %.not = icmp eq ptr %25, null
  br i1 %.not, label %27, label %26

26:                                               ; preds = %24
  tail call void (ptr, ...) @_ZN7LogImplILN6LogTag4typeE148ELS1_0ELS1_0ELS1_0ELS1_0ELS1_0EE5writeILN8LogLevel4typeE2EEEvPKcz(ptr noundef nonnull @.str.8)
  br label %27

27:                                               ; preds = %24, %26
  %28 = load ptr, ptr %6, align 8
  %.not.i = icmp eq ptr %28, null
  br i1 %.not.i, label %36, label %29

29:                                               ; preds = %27
  %30 = load i64, ptr %22, align 8
  %.not1.i = icmp eq i64 %30, 0
  br i1 %.not1.i, label %34, label %31

31:                                               ; preds = %29
  %32 = load ptr, ptr %0, align 8
  %33 = load ptr, ptr %32, align 8
  tail call void @_ZN10OopStorage7releaseEPKPKP7oopDescm(ptr noundef nonnull align 8 dereferenceable(126) %33, ptr noundef nonnull %28, i64 noundef %30) #8
  %.pre.i = load ptr, ptr %6, align 8
  br label %34

34:                                               ; preds = %31, %29
  %35 = phi ptr [ %.pre.i, %31 ], [ %28, %29 ]
  tail call void @_Z8FreeHeapPv(ptr noundef %35) #8
  store ptr null, ptr %6, align 8
  br label %36

36:                                               ; preds = %34, %27
  %37 = load ptr, ptr %0, align 8
  %.not2.i = icmp eq ptr %37, null
  br i1 %.not2.i, label %_ZN11StringDedup8Requests5flushEv.exit, label %38

38:                                               ; preds = %36
  tail call void @_ZN11StringDedup10StorageUse10relinquishEv(ptr noundef nonnull align 8 dereferenceable(16) %37) #8
  store ptr null, ptr %0, align 8
  br label %_ZN11StringDedup8Requests5flushEv.exit

_ZN11StringDedup8Requests5flushEv.exit:           ; preds = %36, %38
  store i64 0, ptr %22, align 8
  br label %.sink.split

.sink.split:                                      ; preds = %14, %12, %_ZN11StringDedup8Requests5flushEv.exit
  store i8 1, ptr %2, align 8
  br label %39

39:                                               ; preds = %.sink.split, %17, %1
  %.0 = phi i1 [ false, %1 ], [ true, %17 ], [ false, %.sink.split ]
  ret i1 %.0
}